ARM GAS  /tmp/cc0hf4xn.s 			page 1


   1              		.cpu cortex-m3
   2              		.arch armv7-m
   3              		.fpu softvfp
   4              		.eabi_attribute 20, 1	@ Tag_ABI_FP_denormal
   5              		.eabi_attribute 21, 1	@ Tag_ABI_FP_exceptions
   6              		.eabi_attribute 23, 3	@ Tag_ABI_FP_number_model
   7              		.eabi_attribute 24, 1	@ Tag_ABI_align8_needed
   8              		.eabi_attribute 25, 1	@ Tag_ABI_align8_preserved
   9              		.eabi_attribute 26, 1	@ Tag_ABI_enum_size
  10              		.eabi_attribute 30, 4	@ Tag_ABI_optimization_goals
  11              		.eabi_attribute 34, 1	@ Tag_CPU_unaligned_access
  12              		.eabi_attribute 18, 4	@ Tag_ABI_PCS_wchar_t
  13              		.file	"haptic.cpp"
  14              	@ GNU C++17 (Arm GNU Toolchain 14.2.Rel1 (Build arm-14.52)) version 14.2.1 20241119 (arm-none-eabi)
  15              	@	compiled by GNU C version 9.2.1 20191120 (Red Hat 9.2.1-2), GMP version 6.2.1, MPFR version 3.1.6
  16              	
  17              	@ GGC heuristics: --param ggc-min-expand=100 --param ggc-min-heapsize=131072
  18              	@ options passed: -mcpu=cortex-m3 -mthumb -mfloat-abi=soft -march=armv7-m -gdwarf-2 -g -Os -std=gnu
  19              		.text
  20              	.Ltext0:
  21              		.cfi_sections	.debug_frame
  22              		.file 1 "/workspaces/edgetx/radio/src/haptic.cpp"
  23              		.section	.text._ZN11hapticQueueC2Ev,"ax",%progbits
  24              		.align	1
  25              		.global	_ZN11hapticQueueC2Ev
  26              		.syntax unified
  27              		.thumb
  28              		.thumb_func
  29              		.type	_ZN11hapticQueueC2Ev, %function
  30              	_ZN11hapticQueueC2Ev:
  31              	.LVL0:
  32              	.LFB2850:
   1:/workspaces/edgetx/radio/src/haptic.cpp **** /*
   2:/workspaces/edgetx/radio/src/haptic.cpp ****  * Copyright (C) EdgeTX
   3:/workspaces/edgetx/radio/src/haptic.cpp ****  *
   4:/workspaces/edgetx/radio/src/haptic.cpp ****  * Based on code named
   5:/workspaces/edgetx/radio/src/haptic.cpp ****  *   opentx - https://github.com/opentx/opentx
   6:/workspaces/edgetx/radio/src/haptic.cpp ****  *   th9x - http://code.google.com/p/th9x
   7:/workspaces/edgetx/radio/src/haptic.cpp ****  *   er9x - http://code.google.com/p/er9x
   8:/workspaces/edgetx/radio/src/haptic.cpp ****  *   gruvin9x - http://code.google.com/p/gruvin9x
   9:/workspaces/edgetx/radio/src/haptic.cpp ****  *
  10:/workspaces/edgetx/radio/src/haptic.cpp ****  * License GPLv2: http://www.gnu.org/licenses/gpl-2.0.html
  11:/workspaces/edgetx/radio/src/haptic.cpp ****  *
  12:/workspaces/edgetx/radio/src/haptic.cpp ****  * This program is free software; you can redistribute it and/or modify
  13:/workspaces/edgetx/radio/src/haptic.cpp ****  * it under the terms of the GNU General Public License version 2 as
  14:/workspaces/edgetx/radio/src/haptic.cpp ****  * published by the Free Software Foundation.
  15:/workspaces/edgetx/radio/src/haptic.cpp ****  *
  16:/workspaces/edgetx/radio/src/haptic.cpp ****  * This program is distributed in the hope that it will be useful,
  17:/workspaces/edgetx/radio/src/haptic.cpp ****  * but WITHOUT ANY WARRANTY; without even the implied warranty of
  18:/workspaces/edgetx/radio/src/haptic.cpp ****  * MERCHANTABILITY or FITNESS FOR A PARTICULAR PURPOSE.  See the
  19:/workspaces/edgetx/radio/src/haptic.cpp ****  * GNU General Public License for more details.
  20:/workspaces/edgetx/radio/src/haptic.cpp ****  */
  21:/workspaces/edgetx/radio/src/haptic.cpp **** 
  22:/workspaces/edgetx/radio/src/haptic.cpp **** #include "edgetx.h"
  23:/workspaces/edgetx/radio/src/haptic.cpp **** #include "haptic.h"
  24:/workspaces/edgetx/radio/src/haptic.cpp **** 
  25:/workspaces/edgetx/radio/src/haptic.cpp **** hapticQueue::hapticQueue()
ARM GAS  /tmp/cc0hf4xn.s 			page 2


  33              		.loc 1 25 1 view -0
  34              		.cfi_startproc
  35              		@ args = 0, pretend = 0, frame = 0
  36              		@ frame_needed = 0, uses_anonymous_args = 0
  37              		@ link register save eliminated.
  38              	.LBB12:
  26:/workspaces/edgetx/radio/src/haptic.cpp **** {
  27:/workspaces/edgetx/radio/src/haptic.cpp ****   buzzTimeLeft = 0;
  39              		.loc 1 27 3 view .LVU1
  40              	@ /workspaces/edgetx/radio/src/haptic.cpp:27:   buzzTimeLeft = 0;
  41              		.loc 1 27 16 is_stmt 0 view .LVU2
  42 0000 0022     		movs	r2, #0	@ tmp116,
  43 0002 8270     		strb	r2, [r0, #2]	@ tmp116, *this_2(D).buzzTimeLeft
  28:/workspaces/edgetx/radio/src/haptic.cpp ****   buzzPause = 0;
  44              		.loc 1 28 3 is_stmt 1 view .LVU3
  45              	@ /workspaces/edgetx/radio/src/haptic.cpp:28:   buzzPause = 0;
  46              		.loc 1 28 13 is_stmt 0 view .LVU4
  47 0004 C270     		strb	r2, [r0, #3]	@ tmp116, *this_2(D).buzzPause
  29:/workspaces/edgetx/radio/src/haptic.cpp **** 
  30:/workspaces/edgetx/radio/src/haptic.cpp ****   t_queueRidx = 0;
  48              		.loc 1 30 3 is_stmt 1 view .LVU5
  49              	@ /workspaces/edgetx/radio/src/haptic.cpp:30:   t_queueRidx = 0;
  50              		.loc 1 30 15 is_stmt 0 view .LVU6
  51 0006 0270     		strb	r2, [r0]	@ tmp116, *this_2(D).t_queueRidx
  31:/workspaces/edgetx/radio/src/haptic.cpp ****   t_queueWidx = 0;
  52              		.loc 1 31 3 is_stmt 1 view .LVU7
  53              	@ /workspaces/edgetx/radio/src/haptic.cpp:31:   t_queueWidx = 0;
  54              		.loc 1 31 15 is_stmt 0 view .LVU8
  55 0008 4270     		strb	r2, [r0, #1]	@ tmp116, *this_2(D).t_queueWidx
  32:/workspaces/edgetx/radio/src/haptic.cpp **** 
  33:/workspaces/edgetx/radio/src/haptic.cpp ****   hapticTick = 0;
  56              		.loc 1 33 3 is_stmt 1 view .LVU9
  57              	@ /workspaces/edgetx/radio/src/haptic.cpp:33:   hapticTick = 0;
  58              		.loc 1 33 14 is_stmt 0 view .LVU10
  59 000a 0271     		strb	r2, [r0, #4]	@ tmp116, *this_2(D).hapticTick
  60              	.LBE12:
  61              	@ /workspaces/edgetx/radio/src/haptic.cpp:34: }
  34:/workspaces/edgetx/radio/src/haptic.cpp **** }
  62              		.loc 1 34 1 view .LVU11
  63 000c 7047     		bx	lr	@
  64              		.cfi_endproc
  65              	.LFE2850:
  66              		.size	_ZN11hapticQueueC2Ev, .-_ZN11hapticQueueC2Ev
  67              		.global	_ZN11hapticQueueC1Ev
  68              		.thumb_set _ZN11hapticQueueC1Ev,_ZN11hapticQueueC2Ev
  69              		.section	.text._ZN11hapticQueue9heartbeatEv,"ax",%progbits
  70              		.align	1
  71              		.global	_ZN11hapticQueue9heartbeatEv
  72              		.syntax unified
  73              		.thumb
  74              		.thumb_func
  75              		.type	_ZN11hapticQueue9heartbeatEv, %function
  76              	_ZN11hapticQueue9heartbeatEv:
  77              	.LVL1:
  78              	.LFB2852:
  35:/workspaces/edgetx/radio/src/haptic.cpp **** 
  36:/workspaces/edgetx/radio/src/haptic.cpp **** void hapticQueue::heartbeat()
ARM GAS  /tmp/cc0hf4xn.s 			page 3


  37:/workspaces/edgetx/radio/src/haptic.cpp **** {
  79              		.loc 1 37 1 is_stmt 1 view -0
  80              		.cfi_startproc
  81              		@ args = 0, pretend = 0, frame = 0
  82              		@ frame_needed = 0, uses_anonymous_args = 0
  38:/workspaces/edgetx/radio/src/haptic.cpp **** #if defined(SIMU)
  39:/workspaces/edgetx/radio/src/haptic.cpp ****   return;
  40:/workspaces/edgetx/radio/src/haptic.cpp **** #else
  41:/workspaces/edgetx/radio/src/haptic.cpp ****   if (buzzTimeLeft > 0) {
  83              		.loc 1 41 3 view .LVU13
  84              	@ /workspaces/edgetx/radio/src/haptic.cpp:37: {
  37:/workspaces/edgetx/radio/src/haptic.cpp **** #if defined(SIMU)
  85              		.loc 1 37 1 is_stmt 0 view .LVU14
  86 0000 10B5     		push	{r4, lr}	@
  87              	.LCFI0:
  88              		.cfi_def_cfa_offset 8
  89              		.cfi_offset 4, -8
  90              		.cfi_offset 14, -4
  91              	@ /workspaces/edgetx/radio/src/haptic.cpp:41:   if (buzzTimeLeft > 0) {
  92              		.loc 1 41 7 view .LVU15
  93 0002 8378     		ldrb	r3, [r0, #2]	@ zero_extendqisi2	@ _1, this_13(D)->buzzTimeLeft
  94              	@ /workspaces/edgetx/radio/src/haptic.cpp:37: {
  37:/workspaces/edgetx/radio/src/haptic.cpp **** #if defined(SIMU)
  95              		.loc 1 37 1 view .LVU16
  96 0004 0446     		mov	r4, r0	@ this, tmp162
  97              	@ /workspaces/edgetx/radio/src/haptic.cpp:41:   if (buzzTimeLeft > 0) {
  98              		.loc 1 41 3 view .LVU17
  99 0006 73B1     		cbz	r3, .L3	@ _1,
  42:/workspaces/edgetx/radio/src/haptic.cpp ****     buzzTimeLeft--; // time gets counted down
 100              		.loc 1 42 5 is_stmt 1 view .LVU18
 101              	@ /workspaces/edgetx/radio/src/haptic.cpp:42:     buzzTimeLeft--; // time gets counted down
 102              		.loc 1 42 17 is_stmt 0 view .LVU19
 103 0008 013B     		subs	r3, r3, #1	@ tmp133, _1,
 104 000a 8370     		strb	r3, [r0, #2]	@ tmp133, this_13(D)->buzzTimeLeft
  43:/workspaces/edgetx/radio/src/haptic.cpp **** #if defined(HAPTIC_PWM)
  44:/workspaces/edgetx/radio/src/haptic.cpp ****     hapticOn(HAPTIC_STRENGTH() * 20);
 105              		.loc 1 44 5 is_stmt 1 view .LVU20
 106              	@ /workspaces/edgetx/radio/src/haptic.cpp:44:     hapticOn(HAPTIC_STRENGTH() * 20);
 107              		.loc 1 44 13 is_stmt 0 view .LVU21
 108 000c 1420     		movs	r0, #20	@ tmp143,
 109              	.LVL2:
 110              	@ /workspaces/edgetx/radio/src/haptic.cpp:69: }
  45:/workspaces/edgetx/radio/src/haptic.cpp **** #else
  46:/workspaces/edgetx/radio/src/haptic.cpp ****     if (hapticTick-- > 0) {
  47:/workspaces/edgetx/radio/src/haptic.cpp ****       hapticOn();
  48:/workspaces/edgetx/radio/src/haptic.cpp ****     }
  49:/workspaces/edgetx/radio/src/haptic.cpp ****     else {
  50:/workspaces/edgetx/radio/src/haptic.cpp ****       hapticOff();
  51:/workspaces/edgetx/radio/src/haptic.cpp ****       hapticTick = HAPTIC_STRENGTH();
  52:/workspaces/edgetx/radio/src/haptic.cpp ****     }
  53:/workspaces/edgetx/radio/src/haptic.cpp **** #endif
  54:/workspaces/edgetx/radio/src/haptic.cpp ****   }
  55:/workspaces/edgetx/radio/src/haptic.cpp ****   else {
  56:/workspaces/edgetx/radio/src/haptic.cpp ****     hapticOff();
  57:/workspaces/edgetx/radio/src/haptic.cpp ****     if (buzzPause > 0) {
  58:/workspaces/edgetx/radio/src/haptic.cpp ****       buzzPause--;
  59:/workspaces/edgetx/radio/src/haptic.cpp ****     }
ARM GAS  /tmp/cc0hf4xn.s 			page 4


  60:/workspaces/edgetx/radio/src/haptic.cpp ****     else if (t_queueRidx != t_queueWidx) {
  61:/workspaces/edgetx/radio/src/haptic.cpp ****       buzzTimeLeft = queueHapticLength[t_queueRidx];
  62:/workspaces/edgetx/radio/src/haptic.cpp ****       buzzPause = queueHapticPause[t_queueRidx];
  63:/workspaces/edgetx/radio/src/haptic.cpp ****       if (!queueHapticRepeat[t_queueRidx]--) {
  64:/workspaces/edgetx/radio/src/haptic.cpp ****         t_queueRidx = (t_queueRidx + 1) & (HAPTIC_QUEUE_LENGTH-1);
  65:/workspaces/edgetx/radio/src/haptic.cpp ****       }
  66:/workspaces/edgetx/radio/src/haptic.cpp ****     }
  67:/workspaces/edgetx/radio/src/haptic.cpp ****   }
  68:/workspaces/edgetx/radio/src/haptic.cpp **** #endif // defined(SIMU)
  69:/workspaces/edgetx/radio/src/haptic.cpp **** }
 111              		.loc 1 69 1 view .LVU22
 112 000e BDE81040 		pop	{r4, lr}	@
 113              	.LCFI1:
 114              		.cfi_remember_state
 115              		.cfi_restore 14
 116              		.cfi_restore 4
 117              		.cfi_def_cfa_offset 0
 118              	.LVL3:
 119              	@ /workspaces/edgetx/radio/src/haptic.cpp:44:     hapticOn(HAPTIC_STRENGTH() * 20);
  44:/workspaces/edgetx/radio/src/haptic.cpp **** #else
 120              		.loc 1 44 14 view .LVU23
 121 0012 124B     		ldr	r3, .L8	@ tmp135,
 122 0014 93F86B30 		ldrb	r3, [r3, #107]	@ zero_extendqisi2	@ g_eeGeneral, g_eeGeneral
 123 0018 43F3C203 		sbfx	r3, r3, #3, #3	@ _3, g_eeGeneral,,
 124 001c 5BB2     		sxtb	r3, r3	@ _4, _3
 125 001e 0333     		adds	r3, r3, #3	@ _5, _4,
 126              	@ /workspaces/edgetx/radio/src/haptic.cpp:44:     hapticOn(HAPTIC_STRENGTH() * 20);
  44:/workspaces/edgetx/radio/src/haptic.cpp **** #else
 127              		.loc 1 44 13 view .LVU24
 128 0020 5843     		muls	r0, r3, r0	@, _5
 129 0022 FFF7FEBF 		b	_Z8hapticOnm		@
 130              	.LVL4:
 131              	.L3:
 132              	.LCFI2:
 133              		.cfi_restore_state
  56:/workspaces/edgetx/radio/src/haptic.cpp ****     if (buzzPause > 0) {
 134              		.loc 1 56 5 is_stmt 1 view .LVU25
 135              	@ /workspaces/edgetx/radio/src/haptic.cpp:56:     hapticOff();
  56:/workspaces/edgetx/radio/src/haptic.cpp ****     if (buzzPause > 0) {
 136              		.loc 1 56 14 is_stmt 0 view .LVU26
 137 0026 FFF7FEFF 		bl	_Z9hapticOffv		@
 138              	.LVL5:
  57:/workspaces/edgetx/radio/src/haptic.cpp ****       buzzPause--;
 139              		.loc 1 57 5 is_stmt 1 view .LVU27
 140              	@ /workspaces/edgetx/radio/src/haptic.cpp:57:     if (buzzPause > 0) {
  57:/workspaces/edgetx/radio/src/haptic.cpp ****       buzzPause--;
 141              		.loc 1 57 9 is_stmt 0 view .LVU28
 142 002a E378     		ldrb	r3, [r4, #3]	@ zero_extendqisi2	@ _8, this_13(D)->buzzPause
 143              	@ /workspaces/edgetx/radio/src/haptic.cpp:57:     if (buzzPause > 0) {
  57:/workspaces/edgetx/radio/src/haptic.cpp ****       buzzPause--;
 144              		.loc 1 57 5 view .LVU29
 145 002c 13B1     		cbz	r3, .L4	@ _8,
  58:/workspaces/edgetx/radio/src/haptic.cpp ****     }
 146              		.loc 1 58 7 is_stmt 1 view .LVU30
 147              	@ /workspaces/edgetx/radio/src/haptic.cpp:58:       buzzPause--;
  58:/workspaces/edgetx/radio/src/haptic.cpp ****     }
 148              		.loc 1 58 16 is_stmt 0 view .LVU31
ARM GAS  /tmp/cc0hf4xn.s 			page 5


 149 002e 013B     		subs	r3, r3, #1	@ tmp144, _8,
 150 0030 E370     		strb	r3, [r4, #3]	@ tmp144, this_13(D)->buzzPause
 151              	.L2:
 152              	@ /workspaces/edgetx/radio/src/haptic.cpp:69: }
 153              		.loc 1 69 1 view .LVU32
 154 0032 10BD     		pop	{r4, pc}	@
 155              	.LVL6:
 156              	.L4:
 157              	.LBB15:
 158              	.LBI15:
  36:/workspaces/edgetx/radio/src/haptic.cpp **** {
 159              		.loc 1 36 6 is_stmt 1 view .LVU33
 160              	.LBB16:
  60:/workspaces/edgetx/radio/src/haptic.cpp ****       buzzTimeLeft = queueHapticLength[t_queueRidx];
 161              		.loc 1 60 10 view .LVU34
 162              	@ /workspaces/edgetx/radio/src/haptic.cpp:60:     else if (t_queueRidx != t_queueWidx) {
  60:/workspaces/edgetx/radio/src/haptic.cpp ****       buzzTimeLeft = queueHapticLength[t_queueRidx];
 163              		.loc 1 60 14 is_stmt 0 view .LVU35
 164 0034 2378     		ldrb	r3, [r4]	@ zero_extendqisi2	@ _18, this_13(D)->t_queueRidx
 165              	@ /workspaces/edgetx/radio/src/haptic.cpp:60:     else if (t_queueRidx != t_queueWidx) {
  60:/workspaces/edgetx/radio/src/haptic.cpp ****       buzzTimeLeft = queueHapticLength[t_queueRidx];
 166              		.loc 1 60 10 view .LVU36
 167 0036 6278     		ldrb	r2, [r4, #1]	@ zero_extendqisi2	@ this_13(D)->t_queueWidx, this_13(D)->t_queueWidx
 168 0038 9A42     		cmp	r2, r3	@ this_13(D)->t_queueWidx, _18
 169 003a FAD0     		beq	.L2		@,
  61:/workspaces/edgetx/radio/src/haptic.cpp ****       buzzPause = queueHapticPause[t_queueRidx];
 170              		.loc 1 61 7 is_stmt 1 view .LVU37
 171              	@ /workspaces/edgetx/radio/src/haptic.cpp:61:       buzzTimeLeft = queueHapticLength[t_queueRidx];
  61:/workspaces/edgetx/radio/src/haptic.cpp ****       buzzPause = queueHapticPause[t_queueRidx];
 172              		.loc 1 61 51 is_stmt 0 view .LVU38
 173 003c E218     		adds	r2, r4, r3	@ tmp147, this, _18
 174              	@ /workspaces/edgetx/radio/src/haptic.cpp:61:       buzzTimeLeft = queueHapticLength[t_queueRidx];
  61:/workspaces/edgetx/radio/src/haptic.cpp ****       buzzPause = queueHapticPause[t_queueRidx];
 175              		.loc 1 61 20 view .LVU39
 176 003e 5179     		ldrb	r1, [r2, #5]	@ zero_extendqisi2	@ this_13(D)->queueHapticLength[_20], this_13(D)->queueHaptic
 177 0040 A170     		strb	r1, [r4, #2]	@ this_13(D)->queueHapticLength[_20], this_13(D)->buzzTimeLeft
  62:/workspaces/edgetx/radio/src/haptic.cpp ****       if (!queueHapticRepeat[t_queueRidx]--) {
 178              		.loc 1 62 7 is_stmt 1 view .LVU40
 179              	@ /workspaces/edgetx/radio/src/haptic.cpp:62:       buzzPause = queueHapticPause[t_queueRidx];
  62:/workspaces/edgetx/radio/src/haptic.cpp ****       if (!queueHapticRepeat[t_queueRidx]--) {
 180              		.loc 1 62 17 is_stmt 0 view .LVU41
 181 0042 517A     		ldrb	r1, [r2, #9]	@ zero_extendqisi2	@ this_13(D)->queueHapticPause[_20], this_13(D)->queueHapticP
 182 0044 E170     		strb	r1, [r4, #3]	@ this_13(D)->queueHapticPause[_20], this_13(D)->buzzPause
  63:/workspaces/edgetx/radio/src/haptic.cpp ****         t_queueRidx = (t_queueRidx + 1) & (HAPTIC_QUEUE_LENGTH-1);
 183              		.loc 1 63 7 is_stmt 1 view .LVU42
 184              	@ /workspaces/edgetx/radio/src/haptic.cpp:63:       if (!queueHapticRepeat[t_queueRidx]--) {
  63:/workspaces/edgetx/radio/src/haptic.cpp ****         t_queueRidx = (t_queueRidx + 1) & (HAPTIC_QUEUE_LENGTH-1);
 185              		.loc 1 63 41 is_stmt 0 view .LVU43
 186 0046 517B     		ldrb	r1, [r2, #13]	@ zero_extendqisi2	@ _23, this_13(D)->queueHapticRepeat[_20]
 187              	@ /workspaces/edgetx/radio/src/haptic.cpp:63:       if (!queueHapticRepeat[t_queueRidx]--) {
  63:/workspaces/edgetx/radio/src/haptic.cpp ****         t_queueRidx = (t_queueRidx + 1) & (HAPTIC_QUEUE_LENGTH-1);
 188              		.loc 1 63 42 view .LVU44
 189 0048 481E     		subs	r0, r1, #1	@ tmp155, _23,
 190 004a 5073     		strb	r0, [r2, #13]	@ tmp155, this_13(D)->queueHapticRepeat[_20]
 191              	@ /workspaces/edgetx/radio/src/haptic.cpp:63:       if (!queueHapticRepeat[t_queueRidx]--) {
  63:/workspaces/edgetx/radio/src/haptic.cpp ****         t_queueRidx = (t_queueRidx + 1) & (HAPTIC_QUEUE_LENGTH-1);
 192              		.loc 1 63 7 view .LVU45
ARM GAS  /tmp/cc0hf4xn.s 			page 6


 193 004c 0029     		cmp	r1, #0	@ _23
 194 004e F0D1     		bne	.L2	@
  64:/workspaces/edgetx/radio/src/haptic.cpp ****       }
 195              		.loc 1 64 9 is_stmt 1 view .LVU46
 196              	@ /workspaces/edgetx/radio/src/haptic.cpp:64:         t_queueRidx = (t_queueRidx + 1) & (HAPTIC_QUE
  64:/workspaces/edgetx/radio/src/haptic.cpp ****       }
 197              		.loc 1 64 36 is_stmt 0 view .LVU47
 198 0050 0133     		adds	r3, r3, #1	@ tmp157, _18,
 199              	@ /workspaces/edgetx/radio/src/haptic.cpp:64:         t_queueRidx = (t_queueRidx + 1) & (HAPTIC_QUE
  64:/workspaces/edgetx/radio/src/haptic.cpp ****       }
 200              		.loc 1 64 41 view .LVU48
 201 0052 03F00303 		and	r3, r3, #3	@ tmp159, tmp157,
 202              	@ /workspaces/edgetx/radio/src/haptic.cpp:64:         t_queueRidx = (t_queueRidx + 1) & (HAPTIC_QUE
  64:/workspaces/edgetx/radio/src/haptic.cpp ****       }
 203              		.loc 1 64 21 view .LVU49
 204 0056 2370     		strb	r3, [r4]	@ tmp159, this_13(D)->t_queueRidx
 205              	.LVL7:
  64:/workspaces/edgetx/radio/src/haptic.cpp ****       }
 206              		.loc 1 64 21 view .LVU50
 207              	.LBE16:
 208              	.LBE15:
 209              	@ /workspaces/edgetx/radio/src/haptic.cpp:69: }
 210              		.loc 1 69 1 view .LVU51
 211 0058 EBE7     		b	.L2		@
 212              	.L9:
 213 005a 00BF     		.align	2
 214              	.L8:
 215 005c 00000000 		.word	g_eeGeneral
 216              		.cfi_endproc
 217              	.LFE2852:
 218              		.size	_ZN11hapticQueue9heartbeatEv, .-_ZN11hapticQueue9heartbeatEv
 219              		.section	.text._ZN11hapticQueue4playEhhh,"ax",%progbits
 220              		.align	1
 221              		.global	_ZN11hapticQueue4playEhhh
 222              		.syntax unified
 223              		.thumb
 224              		.thumb_func
 225              		.type	_ZN11hapticQueue4playEhhh, %function
 226              	_ZN11hapticQueue4playEhhh:
 227              	.LVL8:
 228              	.LFB2853:
  70:/workspaces/edgetx/radio/src/haptic.cpp **** 
  71:/workspaces/edgetx/radio/src/haptic.cpp **** void hapticQueue::play(uint8_t tLen, uint8_t tPause, uint8_t tFlags)
  72:/workspaces/edgetx/radio/src/haptic.cpp **** {
 229              		.loc 1 72 1 is_stmt 1 view -0
 230              		.cfi_startproc
 231              		@ args = 0, pretend = 0, frame = 0
 232              		@ frame_needed = 0, uses_anonymous_args = 0
  73:/workspaces/edgetx/radio/src/haptic.cpp ****   tLen = getHapticLength(tLen);
 233              		.loc 1 73 3 view .LVU53
 234              	.LBB17:
 235              	.LBI17:
 236              		.file 2 "/workspaces/edgetx/radio/src/haptic.h"
   1:/workspaces/edgetx/radio/src/haptic.h **** /*
   2:/workspaces/edgetx/radio/src/haptic.h ****  * Copyright (C) EdgeTX
   3:/workspaces/edgetx/radio/src/haptic.h ****  *
   4:/workspaces/edgetx/radio/src/haptic.h ****  * Based on code named
ARM GAS  /tmp/cc0hf4xn.s 			page 7


   5:/workspaces/edgetx/radio/src/haptic.h ****  *   opentx - https://github.com/opentx/opentx
   6:/workspaces/edgetx/radio/src/haptic.h ****  *   th9x - http://code.google.com/p/th9x
   7:/workspaces/edgetx/radio/src/haptic.h ****  *   er9x - http://code.google.com/p/er9x
   8:/workspaces/edgetx/radio/src/haptic.h ****  *   gruvin9x - http://code.google.com/p/gruvin9x
   9:/workspaces/edgetx/radio/src/haptic.h ****  *
  10:/workspaces/edgetx/radio/src/haptic.h ****  * License GPLv2: http://www.gnu.org/licenses/gpl-2.0.html
  11:/workspaces/edgetx/radio/src/haptic.h ****  *
  12:/workspaces/edgetx/radio/src/haptic.h ****  * This program is free software; you can redistribute it and/or modify
  13:/workspaces/edgetx/radio/src/haptic.h ****  * it under the terms of the GNU General Public License version 2 as
  14:/workspaces/edgetx/radio/src/haptic.h ****  * published by the Free Software Foundation.
  15:/workspaces/edgetx/radio/src/haptic.h ****  *
  16:/workspaces/edgetx/radio/src/haptic.h ****  * This program is distributed in the hope that it will be useful,
  17:/workspaces/edgetx/radio/src/haptic.h ****  * but WITHOUT ANY WARRANTY; without even the implied warranty of
  18:/workspaces/edgetx/radio/src/haptic.h ****  * MERCHANTABILITY or FITNESS FOR A PARTICULAR PURPOSE.  See the
  19:/workspaces/edgetx/radio/src/haptic.h ****  * GNU General Public License for more details.
  20:/workspaces/edgetx/radio/src/haptic.h ****  */
  21:/workspaces/edgetx/radio/src/haptic.h **** 
  22:/workspaces/edgetx/radio/src/haptic.h **** #pragma once
  23:/workspaces/edgetx/radio/src/haptic.h **** 
  24:/workspaces/edgetx/radio/src/haptic.h **** #define HAPTIC_QUEUE_LENGTH  4
  25:/workspaces/edgetx/radio/src/haptic.h **** 
  26:/workspaces/edgetx/radio/src/haptic.h **** class hapticQueue
  27:/workspaces/edgetx/radio/src/haptic.h **** {
  28:/workspaces/edgetx/radio/src/haptic.h ****   public:
  29:/workspaces/edgetx/radio/src/haptic.h **** 
  30:/workspaces/edgetx/radio/src/haptic.h ****     hapticQueue();
  31:/workspaces/edgetx/radio/src/haptic.h **** 
  32:/workspaces/edgetx/radio/src/haptic.h ****     // only difference between these two functions is that one does the
  33:/workspaces/edgetx/radio/src/haptic.h ****     // interupt queue (Now) and the other queues for playing ASAP.
  34:/workspaces/edgetx/radio/src/haptic.h ****     void play(uint8_t tLen, uint8_t tPause, uint8_t tRepeat=0);
  35:/workspaces/edgetx/radio/src/haptic.h **** 
  36:/workspaces/edgetx/radio/src/haptic.h ****     inline bool busy() { return (buzzTimeLeft > 0); }
  37:/workspaces/edgetx/radio/src/haptic.h **** 
  38:/workspaces/edgetx/radio/src/haptic.h ****     void event(uint8_t e);
  39:/workspaces/edgetx/radio/src/haptic.h **** 
  40:/workspaces/edgetx/radio/src/haptic.h ****     // heartbeat is responsibile for issueing the haptic buzzs and general square waves
  41:/workspaces/edgetx/radio/src/haptic.h ****     // it is essentially the life of the class.
  42:/workspaces/edgetx/radio/src/haptic.h ****     void heartbeat();
  43:/workspaces/edgetx/radio/src/haptic.h **** 
  44:/workspaces/edgetx/radio/src/haptic.h ****     // bool freeslots(uint8_t slots);
  45:/workspaces/edgetx/radio/src/haptic.h **** 
  46:/workspaces/edgetx/radio/src/haptic.h ****     inline bool empty() {
  47:/workspaces/edgetx/radio/src/haptic.h ****       return (t_queueRidx == t_queueWidx);
  48:/workspaces/edgetx/radio/src/haptic.h ****     }
  49:/workspaces/edgetx/radio/src/haptic.h **** 
  50:/workspaces/edgetx/radio/src/haptic.h ****   protected:
  51:/workspaces/edgetx/radio/src/haptic.h ****     inline uint8_t getHapticLength(uint8_t tLen) {
 237              		.loc 2 51 20 view .LVU54
 238              	.LBB18:
  52:/workspaces/edgetx/radio/src/haptic.h ****       return ((g_eeGeneral.hapticLength * 2) + tLen) * 2;
 239              		.loc 2 52 7 view .LVU55
 240              	.LBE18:
 241              	.LBE17:
 242              	@ /workspaces/edgetx/radio/src/haptic.cpp:72: {
  72:/workspaces/edgetx/radio/src/haptic.cpp ****   tLen = getHapticLength(tLen);
 243              		.loc 1 72 1 is_stmt 0 view .LVU56
 244 0000 70B5     		push	{r4, r5, r6, lr}	@
ARM GAS  /tmp/cc0hf4xn.s 			page 8


 245              	.LCFI3:
 246              		.cfi_def_cfa_offset 16
 247              		.cfi_offset 4, -16
 248              		.cfi_offset 5, -12
 249              		.cfi_offset 6, -8
 250              		.cfi_offset 14, -4
 251              	.LBB21:
 252              	.LBB19:
 253              	@ /workspaces/edgetx/radio/src/haptic.h:52:       return ((g_eeGeneral.hapticLength * 2) + tLen) * 
 254              		.loc 2 52 28 view .LVU57
 255 0002 134C     		ldr	r4, .L18	@ tmp137,
 256 0004 94F96A40 		ldrsb	r4, [r4, #106]	@ _15, g_eeGeneral.hapticLength
 257              	@ /workspaces/edgetx/radio/src/haptic.h:52:       return ((g_eeGeneral.hapticLength * 2) + tLen) * 
 258              		.loc 2 52 46 view .LVU58
 259 0008 01EB4401 		add	r1, r1, r4, lsl #1	@ _29, tmp168, _15,
 260              	.LVL9:
 261              	@ /workspaces/edgetx/radio/src/haptic.h:52:       return ((g_eeGeneral.hapticLength * 2) + tLen) * 
 262              		.loc 2 52 56 view .LVU59
 263 000c 4900     		lsls	r1, r1, #1	@ tmp142, _29,
 264              	.LBE19:
 265              	.LBE21:
 266              	@ /workspaces/edgetx/radio/src/haptic.cpp:75:   if ((tFlags & PLAY_NOW) || (!busy() && empty())) {
  74:/workspaces/edgetx/radio/src/haptic.cpp **** 
  75:/workspaces/edgetx/radio/src/haptic.cpp ****   if ((tFlags & PLAY_NOW) || (!busy() && empty())) {
 267              		.loc 1 75 27 view .LVU60
 268 000e DC06     		lsls	r4, r3, #27	@, tFlags,
 269              	.LBB22:
 270              	.LBB20:
 271              	@ /workspaces/edgetx/radio/src/haptic.h:52:       return ((g_eeGeneral.hapticLength * 2) + tLen) * 
 272              		.loc 2 52 56 view .LVU61
 273 0010 C9B2     		uxtb	r1, r1	@ _31, tmp142
 274              	.LVL10:
 275              		.loc 2 52 56 view .LVU62
 276              	.LBE20:
 277              	.LBE22:
 278              		.loc 1 75 3 is_stmt 1 view .LVU63
 279              	@ /workspaces/edgetx/radio/src/haptic.cpp:75:   if ((tFlags & PLAY_NOW) || (!busy() && empty())) {
 280              		.loc 1 75 27 is_stmt 0 view .LVU64
 281 0012 05D4     		bmi	.L11		@,
 282              	.LVL11:
 283              	.LBB23:
 284              	.LBI23:
  36:/workspaces/edgetx/radio/src/haptic.h **** 
 285              		.loc 2 36 17 is_stmt 1 view .LVU65
 286              	.LBB24:
  36:/workspaces/edgetx/radio/src/haptic.h **** 
 287              		.loc 2 36 26 view .LVU66
  36:/workspaces/edgetx/radio/src/haptic.h **** 
 288              		.loc 2 36 26 is_stmt 0 view .LVU67
 289              	.LBE24:
 290              	.LBE23:
 291              	@ /workspaces/edgetx/radio/src/haptic.cpp:75:   if ((tFlags & PLAY_NOW) || (!busy() && empty())) {
 292              		.loc 1 75 27 discriminator 1 view .LVU68
 293 0014 8478     		ldrb	r4, [r0, #2]	@ zero_extendqisi2	@ this_11(D)->buzzTimeLeft, this_11(D)->buzzTimeLeft
 294 0016 C4B9     		cbnz	r4, .L12	@ this_11(D)->buzzTimeLeft,
 295              	.LVL12:
 296              	.LBB25:
ARM GAS  /tmp/cc0hf4xn.s 			page 9


 297              	.LBI25:
  46:/workspaces/edgetx/radio/src/haptic.h ****       return (t_queueRidx == t_queueWidx);
 298              		.loc 2 46 17 is_stmt 1 view .LVU69
 299              	.LBB26:
  47:/workspaces/edgetx/radio/src/haptic.h ****     }
 300              		.loc 2 47 7 view .LVU70
  47:/workspaces/edgetx/radio/src/haptic.h ****     }
 301              		.loc 2 47 7 is_stmt 0 view .LVU71
 302              	.LBE26:
 303              	.LBE25:
 304              	@ /workspaces/edgetx/radio/src/haptic.cpp:75:   if ((tFlags & PLAY_NOW) || (!busy() && empty())) {
 305              		.loc 1 75 39 discriminator 1 view .LVU72
 306 0018 0578     		ldrb	r5, [r0]	@ zero_extendqisi2	@ this_11(D)->t_queueRidx, this_11(D)->t_queueRidx
 307 001a 4478     		ldrb	r4, [r0, #1]	@ zero_extendqisi2	@ this_11(D)->t_queueWidx, this_11(D)->t_queueWidx
 308 001c A542     		cmp	r5, r4	@ this_11(D)->t_queueRidx, this_11(D)->t_queueWidx
 309 001e 14D1     		bne	.L12		@,
 310              	.L11:
  76:/workspaces/edgetx/radio/src/haptic.cpp ****     buzzTimeLeft = tLen;
 311              		.loc 1 76 5 is_stmt 1 view .LVU73
 312              	@ /workspaces/edgetx/radio/src/haptic.cpp:78:     t_queueWidx = t_queueRidx;
  77:/workspaces/edgetx/radio/src/haptic.cpp ****     buzzPause = tPause;
  78:/workspaces/edgetx/radio/src/haptic.cpp ****     t_queueWidx = t_queueRidx;
 313              		.loc 1 78 17 is_stmt 0 view .LVU74
 314 0020 0478     		ldrb	r4, [r0]	@ zero_extendqisi2	@ this_11(D)->t_queueRidx, this_11(D)->t_queueRidx
 315              	@ /workspaces/edgetx/radio/src/haptic.cpp:76:     buzzTimeLeft = tLen;
  76:/workspaces/edgetx/radio/src/haptic.cpp ****     buzzTimeLeft = tLen;
 316              		.loc 1 76 18 view .LVU75
 317 0022 8170     		strb	r1, [r0, #2]	@ _31, this_11(D)->buzzTimeLeft
  77:/workspaces/edgetx/radio/src/haptic.cpp ****     buzzPause = tPause;
 318              		.loc 1 77 5 is_stmt 1 view .LVU76
 319              	@ /workspaces/edgetx/radio/src/haptic.cpp:77:     buzzPause = tPause;
  77:/workspaces/edgetx/radio/src/haptic.cpp ****     buzzPause = tPause;
 320              		.loc 1 77 15 is_stmt 0 view .LVU77
 321 0024 C270     		strb	r2, [r0, #3]	@ tPause, this_11(D)->buzzPause
 322              		.loc 1 78 5 is_stmt 1 view .LVU78
 323              	@ /workspaces/edgetx/radio/src/haptic.cpp:78:     t_queueWidx = t_queueRidx;
 324              		.loc 1 78 17 is_stmt 0 view .LVU79
 325 0026 4470     		strb	r4, [r0, #1]	@ this_11(D)->t_queueRidx, this_11(D)->t_queueWidx
 326              	.LVL13:
 327              	.L13:
  79:/workspaces/edgetx/radio/src/haptic.cpp ****   }
  80:/workspaces/edgetx/radio/src/haptic.cpp ****   else {
  81:/workspaces/edgetx/radio/src/haptic.cpp ****     tFlags += 1;
  82:/workspaces/edgetx/radio/src/haptic.cpp ****   }
  83:/workspaces/edgetx/radio/src/haptic.cpp **** 
  84:/workspaces/edgetx/radio/src/haptic.cpp ****   tFlags &= 0x0f;
 328              		.loc 1 84 3 is_stmt 1 view .LVU80
  85:/workspaces/edgetx/radio/src/haptic.cpp ****   if (tFlags) {
 329              		.loc 1 85 3 view .LVU81
 330              	.LBB27:
 331 0028 13F00F03 		ands	r3, r3, #15	@ tFlags, tFlags,
 332              	.LVL14:
 333              		.loc 1 85 3 is_stmt 0 view .LVU82
 334 002c 0CD0     		beq	.L10		@,
 335              	.LBB28:
  86:/workspaces/edgetx/radio/src/haptic.cpp ****     uint8_t next_queueWidx = (t_queueWidx + 1) & (HAPTIC_QUEUE_LENGTH-1);
 336              		.loc 1 86 5 is_stmt 1 view .LVU83
ARM GAS  /tmp/cc0hf4xn.s 			page 10


 337              	@ /workspaces/edgetx/radio/src/haptic.cpp:86:     uint8_t next_queueWidx = (t_queueWidx + 1) & (HAP
 338              		.loc 1 86 31 is_stmt 0 view .LVU84
 339 002e 4478     		ldrb	r4, [r0, #1]	@ zero_extendqisi2	@ _2, this_11(D)->t_queueWidx
 340              	@ /workspaces/edgetx/radio/src/haptic.cpp:87:     if (next_queueWidx != t_queueRidx) {
  87:/workspaces/edgetx/radio/src/haptic.cpp ****     if (next_queueWidx != t_queueRidx) {
 341              		.loc 1 87 5 view .LVU85
 342 0030 0678     		ldrb	r6, [r0]	@ zero_extendqisi2	@ this_11(D)->t_queueRidx, this_11(D)->t_queueRidx
 343              	@ /workspaces/edgetx/radio/src/haptic.cpp:86:     uint8_t next_queueWidx = (t_queueWidx + 1) & (HAP
  86:/workspaces/edgetx/radio/src/haptic.cpp ****     uint8_t next_queueWidx = (t_queueWidx + 1) & (HAPTIC_QUEUE_LENGTH-1);
 344              		.loc 1 86 43 view .LVU86
 345 0032 651C     		adds	r5, r4, #1	@ tmp155, _2,
 346              	@ /workspaces/edgetx/radio/src/haptic.cpp:86:     uint8_t next_queueWidx = (t_queueWidx + 1) & (HAP
  86:/workspaces/edgetx/radio/src/haptic.cpp ****     uint8_t next_queueWidx = (t_queueWidx + 1) & (HAPTIC_QUEUE_LENGTH-1);
 347              		.loc 1 86 13 view .LVU87
 348 0034 05F00305 		and	r5, r5, #3	@ next_queueWidx, tmp155,
 349              	.LVL15:
 350              		.loc 1 87 5 is_stmt 1 view .LVU88
 351 0038 AE42     		cmp	r6, r5	@ this_11(D)->t_queueRidx, next_queueWidx
 352 003a 05D0     		beq	.L10		@,
  88:/workspaces/edgetx/radio/src/haptic.cpp ****       queueHapticLength[t_queueWidx] = tLen;
 353              		.loc 1 88 7 view .LVU89
 354              	@ /workspaces/edgetx/radio/src/haptic.cpp:88:       queueHapticLength[t_queueWidx] = tLen;
 355              		.loc 1 88 38 is_stmt 0 view .LVU90
 356 003c 0444     		add	r4, r4, r0	@ tmp159, this
 357              	@ /workspaces/edgetx/radio/src/haptic.cpp:90:       queueHapticRepeat[t_queueWidx] = tFlags-1;
  89:/workspaces/edgetx/radio/src/haptic.cpp ****       queueHapticPause[t_queueWidx] = tPause;
  90:/workspaces/edgetx/radio/src/haptic.cpp ****       queueHapticRepeat[t_queueWidx] = tFlags-1;
 358              		.loc 1 90 46 view .LVU91
 359 003e 013B     		subs	r3, r3, #1	@ tmp164, tFlags,
 360              	@ /workspaces/edgetx/radio/src/haptic.cpp:88:       queueHapticLength[t_queueWidx] = tLen;
  88:/workspaces/edgetx/radio/src/haptic.cpp ****       queueHapticLength[t_queueWidx] = tLen;
 361              		.loc 1 88 38 view .LVU92
 362 0040 6171     		strb	r1, [r4, #5]	@ _31, this_11(D)->queueHapticLength[_5]
  89:/workspaces/edgetx/radio/src/haptic.cpp ****       queueHapticPause[t_queueWidx] = tPause;
 363              		.loc 1 89 7 is_stmt 1 view .LVU93
 364              	@ /workspaces/edgetx/radio/src/haptic.cpp:89:       queueHapticPause[t_queueWidx] = tPause;
  89:/workspaces/edgetx/radio/src/haptic.cpp ****       queueHapticPause[t_queueWidx] = tPause;
 365              		.loc 1 89 37 is_stmt 0 view .LVU94
 366 0042 6272     		strb	r2, [r4, #9]	@ tPause, this_11(D)->queueHapticPause[_5]
 367              		.loc 1 90 7 is_stmt 1 view .LVU95
 368              	@ /workspaces/edgetx/radio/src/haptic.cpp:90:       queueHapticRepeat[t_queueWidx] = tFlags-1;
 369              		.loc 1 90 38 is_stmt 0 view .LVU96
 370 0044 6373     		strb	r3, [r4, #13]	@ tmp164, this_11(D)->queueHapticRepeat[_5]
  91:/workspaces/edgetx/radio/src/haptic.cpp ****       t_queueWidx = next_queueWidx;
 371              		.loc 1 91 7 is_stmt 1 view .LVU97
 372              	@ /workspaces/edgetx/radio/src/haptic.cpp:91:       t_queueWidx = next_queueWidx;
 373              		.loc 1 91 19 is_stmt 0 view .LVU98
 374 0046 4570     		strb	r5, [r0, #1]	@ next_queueWidx, this_11(D)->t_queueWidx
 375              	.LVL16:
 376              	.L10:
 377              		.loc 1 91 19 view .LVU99
 378              	.LBE28:
 379              	.LBE27:
 380              	@ /workspaces/edgetx/radio/src/haptic.cpp:94: }
  92:/workspaces/edgetx/radio/src/haptic.cpp ****     }
  93:/workspaces/edgetx/radio/src/haptic.cpp ****   }
  94:/workspaces/edgetx/radio/src/haptic.cpp **** }
ARM GAS  /tmp/cc0hf4xn.s 			page 11


 381              		.loc 1 94 1 view .LVU100
 382 0048 70BD     		pop	{r4, r5, r6, pc}	@
 383              	.LVL17:
 384              	.L12:
  81:/workspaces/edgetx/radio/src/haptic.cpp ****   }
 385              		.loc 1 81 5 is_stmt 1 view .LVU101
 386              	@ /workspaces/edgetx/radio/src/haptic.cpp:81:     tFlags += 1;
  81:/workspaces/edgetx/radio/src/haptic.cpp ****   }
 387              		.loc 1 81 12 is_stmt 0 view .LVU102
 388 004a 0133     		adds	r3, r3, #1	@ tmp153, tFlags,
 389              	.LVL18:
  81:/workspaces/edgetx/radio/src/haptic.cpp ****   }
 390              		.loc 1 81 12 view .LVU103
 391 004c DBB2     		uxtb	r3, r3	@ tFlags, tmp153
 392 004e EBE7     		b	.L13		@
 393              	.L19:
 394              		.align	2
 395              	.L18:
 396 0050 00000000 		.word	g_eeGeneral
 397              		.cfi_endproc
 398              	.LFE2853:
 399              		.size	_ZN11hapticQueue4playEhhh, .-_ZN11hapticQueue4playEhhh
 400              		.section	.text._ZN11hapticQueue5eventEh,"ax",%progbits
 401              		.align	1
 402              		.global	_ZN11hapticQueue5eventEh
 403              		.syntax unified
 404              		.thumb
 405              		.thumb_func
 406              		.type	_ZN11hapticQueue5eventEh, %function
 407              	_ZN11hapticQueue5eventEh:
 408              	.LVL19:
 409              	.LFB2854:
  95:/workspaces/edgetx/radio/src/haptic.cpp **** 
  96:/workspaces/edgetx/radio/src/haptic.cpp **** void hapticQueue::event(uint8_t e)
  97:/workspaces/edgetx/radio/src/haptic.cpp **** {
 410              		.loc 1 97 1 is_stmt 1 view -0
 411              		.cfi_startproc
 412              		@ args = 0, pretend = 0, frame = 0
 413              		@ frame_needed = 0, uses_anonymous_args = 0
  98:/workspaces/edgetx/radio/src/haptic.cpp ****   if (g_eeGeneral.hapticMode >= e_mode_nokeys || (g_eeGeneral.hapticMode >= e_mode_alarms && e <= A
 414              		.loc 1 98 3 view .LVU105
 415              	@ /workspaces/edgetx/radio/src/haptic.cpp:97: {
  97:/workspaces/edgetx/radio/src/haptic.cpp ****   if (g_eeGeneral.hapticMode >= e_mode_nokeys || (g_eeGeneral.hapticMode >= e_mode_alarms && e <= A
 416              		.loc 1 97 1 is_stmt 0 view .LVU106
 417 0000 70B5     		push	{r4, r5, r6, lr}	@
 418              	.LCFI4:
 419              		.cfi_def_cfa_offset 16
 420              		.cfi_offset 4, -16
 421              		.cfi_offset 5, -12
 422              		.cfi_offset 6, -8
 423              		.cfi_offset 14, -4
 424              	@ /workspaces/edgetx/radio/src/haptic.cpp:98:   if (g_eeGeneral.hapticMode >= e_mode_nokeys || (g_e
 425              		.loc 1 98 19 view .LVU107
 426 0002 184B     		ldr	r3, .L29	@ tmp124,
 427              	@ /workspaces/edgetx/radio/src/haptic.cpp:97: {
  97:/workspaces/edgetx/radio/src/haptic.cpp ****   if (g_eeGeneral.hapticMode >= e_mode_nokeys || (g_eeGeneral.hapticMode >= e_mode_alarms && e <= A
 428              		.loc 1 97 1 view .LVU108
ARM GAS  /tmp/cc0hf4xn.s 			page 12


 429 0004 0546     		mov	r5, r0	@ this, tmp161
 430              	@ /workspaces/edgetx/radio/src/haptic.cpp:98:   if (g_eeGeneral.hapticMode >= e_mode_nokeys || (g_e
 431              		.loc 1 98 19 view .LVU109
 432 0006 93F86530 		ldrb	r3, [r3, #101]	@ zero_extendqisi2	@ g_eeGeneral, g_eeGeneral
 433              	@ /workspaces/edgetx/radio/src/haptic.cpp:97: {
  97:/workspaces/edgetx/radio/src/haptic.cpp ****   if (g_eeGeneral.hapticMode >= e_mode_nokeys || (g_eeGeneral.hapticMode >= e_mode_alarms && e <= A
 434              		.loc 1 97 1 view .LVU110
 435 000a 0C46     		mov	r4, r1	@ e, tmp162
 436              	@ /workspaces/edgetx/radio/src/haptic.cpp:98:   if (g_eeGeneral.hapticMode >= e_mode_nokeys || (g_e
 437              		.loc 1 98 3 view .LVU111
 438 000c DA09     		lsrs	r2, r3, #7	@ tmp163, g_eeGeneral,
 439 000e 06D0     		beq	.L21		@,
 440              	@ /workspaces/edgetx/radio/src/haptic.cpp:98:   if (g_eeGeneral.hapticMode >= e_mode_nokeys || (g_e
 441              		.loc 1 98 47 discriminator 1 view .LVU112
 442 0010 03F0C003 		and	r3, r3, #192	@ tmp136, g_eeGeneral,
 443 0014 802B     		cmp	r3, #128	@ tmp136,
 444 0016 01D0     		beq	.L20		@,
 445              	@ /workspaces/edgetx/radio/src/haptic.cpp:98:   if (g_eeGeneral.hapticMode >= e_mode_nokeys || (g_e
 446              		.loc 1 98 91 discriminator 2 view .LVU113
 447 0018 1429     		cmp	r1, #20	@ e,
 448 001a 02D9     		bls	.L23		@,
 449              	.L20:
 450              	@ /workspaces/edgetx/radio/src/haptic.cpp:108: }
  99:/workspaces/edgetx/radio/src/haptic.cpp ****     if (e <= AU_ERROR)
 100:/workspaces/edgetx/radio/src/haptic.cpp ****       play(15, 3, PLAY_NOW);
 101:/workspaces/edgetx/radio/src/haptic.cpp ****     else if (e <= AU_MIX_WARNING_3)
 102:/workspaces/edgetx/radio/src/haptic.cpp ****       play(15, 3, PLAY_NOW);
 103:/workspaces/edgetx/radio/src/haptic.cpp ****     else if (e >= AU_SPECIAL_SOUND_LAST && empty()) {
 104:/workspaces/edgetx/radio/src/haptic.cpp ****       play(30, 10, 0);
 105:/workspaces/edgetx/radio/src/haptic.cpp ****       play(10, 50-10*(e-AU_SPECIAL_SOUND_LAST), (e-AU_SPECIAL_SOUND_LAST));
 106:/workspaces/edgetx/radio/src/haptic.cpp ****     }
 107:/workspaces/edgetx/radio/src/haptic.cpp ****   }
 108:/workspaces/edgetx/radio/src/haptic.cpp **** }
 451              		.loc 1 108 1 view .LVU114
 452 001c 70BD     		pop	{r4, r5, r6, pc}	@
 453              	.L21:
  99:/workspaces/edgetx/radio/src/haptic.cpp ****     if (e <= AU_ERROR)
 454              		.loc 1 99 5 is_stmt 1 view .LVU115
 455 001e 2529     		cmp	r1, #37	@ e,
 456 0020 07D8     		bhi	.L24		@,
 457              	.L23:
 100:/workspaces/edgetx/radio/src/haptic.cpp ****     else if (e <= AU_MIX_WARNING_3)
 458              		.loc 1 100 7 view .LVU116
 459              	@ /workspaces/edgetx/radio/src/haptic.cpp:100:       play(15, 3, PLAY_NOW);
 100:/workspaces/edgetx/radio/src/haptic.cpp ****     else if (e <= AU_MIX_WARNING_3)
 460              		.loc 1 100 11 is_stmt 0 view .LVU117
 461 0022 1023     		movs	r3, #16	@,
 462 0024 0322     		movs	r2, #3	@,
 463 0026 0F21     		movs	r1, #15	@,
 464              	.LVL20:
 100:/workspaces/edgetx/radio/src/haptic.cpp ****     else if (e <= AU_MIX_WARNING_3)
 465              		.loc 1 100 11 view .LVU118
 466 0028 2846     		mov	r0, r5	@, this
 467              	.LVL21:
 468              	.L28:
 469              	@ /workspaces/edgetx/radio/src/haptic.cpp:108: }
 470              		.loc 1 108 1 view .LVU119
ARM GAS  /tmp/cc0hf4xn.s 			page 13


 471 002a BDE87040 		pop	{r4, r5, r6, lr}	@
 472              	.LCFI5:
 473              		.cfi_remember_state
 474              		.cfi_restore 14
 475              		.cfi_restore 6
 476              		.cfi_restore 5
 477              		.cfi_restore 4
 478              		.cfi_def_cfa_offset 0
 479              	.LVL22:
 480              	@ /workspaces/edgetx/radio/src/haptic.cpp:105:       play(10, 50-10*(e-AU_SPECIAL_SOUND_LAST), (e-A
 105:/workspaces/edgetx/radio/src/haptic.cpp ****     }
 481              		.loc 1 105 11 view .LVU120
 482 002e FFF7FEBF 		b	_ZN11hapticQueue4playEhhh		@
 483              	.LVL23:
 484              	.L24:
 485              	.LCFI6:
 486              		.cfi_restore_state
 101:/workspaces/edgetx/radio/src/haptic.cpp ****       play(15, 3, PLAY_NOW);
 487              		.loc 1 101 10 is_stmt 1 view .LVU121
 103:/workspaces/edgetx/radio/src/haptic.cpp ****       play(30, 10, 0);
 488              		.loc 1 103 10 view .LVU122
 489              	@ /workspaces/edgetx/radio/src/haptic.cpp:103:     else if (e >= AU_SPECIAL_SOUND_LAST && empty()) 
 103:/workspaces/edgetx/radio/src/haptic.cpp ****       play(30, 10, 0);
 490              		.loc 1 103 41 is_stmt 0 view .LVU123
 491 0032 3829     		cmp	r1, #56	@ e,
 492 0034 F2D9     		bls	.L20		@,
 493              	.LVL24:
 494              	.LBB29:
 495              	.LBI29:
  46:/workspaces/edgetx/radio/src/haptic.h ****       return (t_queueRidx == t_queueWidx);
 496              		.loc 2 46 17 is_stmt 1 view .LVU124
 497              	.LBB30:
  47:/workspaces/edgetx/radio/src/haptic.h ****     }
 498              		.loc 2 47 7 view .LVU125
  47:/workspaces/edgetx/radio/src/haptic.h ****     }
 499              		.loc 2 47 7 is_stmt 0 view .LVU126
 500              	.LBE30:
 501              	.LBE29:
 502              	@ /workspaces/edgetx/radio/src/haptic.cpp:103:     else if (e >= AU_SPECIAL_SOUND_LAST && empty()) 
 103:/workspaces/edgetx/radio/src/haptic.cpp ****       play(30, 10, 0);
 503              		.loc 1 103 41 discriminator 1 view .LVU127
 504 0036 0278     		ldrb	r2, [r0]	@ zero_extendqisi2	@ this_10(D)->t_queueRidx, this_10(D)->t_queueRidx
 505 0038 4378     		ldrb	r3, [r0, #1]	@ zero_extendqisi2	@ this_10(D)->t_queueWidx, this_10(D)->t_queueWidx
 506 003a 9A42     		cmp	r2, r3	@ this_10(D)->t_queueRidx, this_10(D)->t_queueWidx
 507 003c EED1     		bne	.L20		@,
 104:/workspaces/edgetx/radio/src/haptic.cpp ****       play(10, 50-10*(e-AU_SPECIAL_SOUND_LAST), (e-AU_SPECIAL_SOUND_LAST));
 508              		.loc 1 104 7 is_stmt 1 view .LVU128
 509              	@ /workspaces/edgetx/radio/src/haptic.cpp:104:       play(30, 10, 0);
 104:/workspaces/edgetx/radio/src/haptic.cpp ****       play(10, 50-10*(e-AU_SPECIAL_SOUND_LAST), (e-AU_SPECIAL_SOUND_LAST));
 510              		.loc 1 104 11 is_stmt 0 view .LVU129
 511 003e 0023     		movs	r3, #0	@,
 512 0040 0A22     		movs	r2, #10	@,
 513 0042 1E21     		movs	r1, #30	@,
 514              	.LVL25:
 104:/workspaces/edgetx/radio/src/haptic.cpp ****       play(10, 50-10*(e-AU_SPECIAL_SOUND_LAST), (e-AU_SPECIAL_SOUND_LAST));
 515              		.loc 1 104 11 view .LVU130
 516 0044 FFF7FEFF 		bl	_ZN11hapticQueue4playEhhh		@
ARM GAS  /tmp/cc0hf4xn.s 			page 14


 517              	.LVL26:
 105:/workspaces/edgetx/radio/src/haptic.cpp ****     }
 518              		.loc 1 105 7 is_stmt 1 view .LVU131
 519              	@ /workspaces/edgetx/radio/src/haptic.cpp:105:       play(10, 50-10*(e-AU_SPECIAL_SOUND_LAST), (e-A
 105:/workspaces/edgetx/radio/src/haptic.cpp ****     }
 520              		.loc 1 105 11 is_stmt 0 view .LVU132
 521 0048 C4EB4412 		rsb	r2, r4, r4, lsl #5	@ tmp151, e, e,
 522 004c C4EB8202 		rsb	r2, r4, r2, lsl #2	@ tmp155, e, tmp151,
 523 0050 5200     		lsls	r2, r2, #1	@ tmp157, tmp155,
 524 0052 A4F13903 		sub	r3, r4, #57	@ tmp145, e,
 525 0056 6C32     		adds	r2, r2, #108	@ tmp159, tmp157,
 526 0058 0A21     		movs	r1, #10	@,
 527 005a DBB2     		uxtb	r3, r3	@, tmp145
 528 005c 02F0FE02 		and	r2, r2, #254	@, tmp159,
 529 0060 E3E7     		b	.L28		@
 530              	.L30:
 531 0062 00BF     		.align	2
 532              	.L29:
 533 0064 00000000 		.word	g_eeGeneral
 534              		.cfi_endproc
 535              	.LFE2854:
 536              		.size	_ZN11hapticQueue5eventEh, .-_ZN11hapticQueue5eventEh
 537              		.section	.text._Z6per5msv,"ax",%progbits
 538              		.align	1
 539              		.global	_Z6per5msv
 540              		.syntax unified
 541              		.thumb
 542              		.thumb_func
 543              		.type	_Z6per5msv, %function
 544              	_Z6per5msv:
 545              	.LFB2855:
 109:/workspaces/edgetx/radio/src/haptic.cpp **** 
 110:/workspaces/edgetx/radio/src/haptic.cpp **** hapticQueue haptic;
 111:/workspaces/edgetx/radio/src/haptic.cpp **** 
 112:/workspaces/edgetx/radio/src/haptic.cpp **** // from timers_driver.cpp
 113:/workspaces/edgetx/radio/src/haptic.cpp **** void per5ms()
 114:/workspaces/edgetx/radio/src/haptic.cpp **** {
 546              		.loc 1 114 1 is_stmt 1 view -0
 547              		.cfi_startproc
 548              		@ args = 0, pretend = 0, frame = 0
 549              		@ frame_needed = 0, uses_anonymous_args = 0
 550              		@ link register save eliminated.
 115:/workspaces/edgetx/radio/src/haptic.cpp ****   DEBUG_TIMER_START(debugTimerHaptic);
 551              		.loc 1 115 38 view .LVU134
 116:/workspaces/edgetx/radio/src/haptic.cpp ****   HAPTIC_HEARTBEAT();
 552              		.loc 1 116 3 view .LVU135
 553 0000 0148     		ldr	r0, .L32	@,
 554 0002 FFF7FEBF 		b	_ZN11hapticQueue9heartbeatEv		@
 555              	.LVL27:
 556              	.L33:
 557 0006 00BF     		.align	2
 558              	.L32:
 559 0008 00000000 		.word	haptic
 560              		.cfi_endproc
 561              	.LFE2855:
 562              		.size	_Z6per5msv, .-_Z6per5msv
 563              		.section	.text.startup._GLOBAL__sub_I__ZN11hapticQueueC2Ev,"ax",%progbits
ARM GAS  /tmp/cc0hf4xn.s 			page 15


 564              		.align	1
 565              		.syntax unified
 566              		.thumb
 567              		.thumb_func
 568              		.type	_GLOBAL__sub_I__ZN11hapticQueueC2Ev, %function
 569              	_GLOBAL__sub_I__ZN11hapticQueueC2Ev:
 570              	.LFB3394:
 117:/workspaces/edgetx/radio/src/haptic.cpp ****   DEBUG_TIMER_STOP(debugTimerHaptic);
 118:/workspaces/edgetx/radio/src/haptic.cpp **** }
 571              		.loc 1 118 1 view -0
 572              		.cfi_startproc
 573              		@ args = 0, pretend = 0, frame = 0
 574              		@ frame_needed = 0, uses_anonymous_args = 0
 575              		@ link register save eliminated.
 576              	.LBB33:
 577              	.LBI33:
 578              		.loc 1 118 1 view .LVU137
 579              	.LBB34:
 580              	@ /workspaces/edgetx/radio/src/haptic.cpp:110: hapticQueue haptic;
 110:/workspaces/edgetx/radio/src/haptic.cpp **** 
 581              		.loc 1 110 13 is_stmt 0 view .LVU138
 582 0000 0148     		ldr	r0, .L35	@,
 583 0002 FFF7FEBF 		b	_ZN11hapticQueueC1Ev		@
 584              	.LVL28:
 585              	.L36:
 586 0006 00BF     		.align	2
 587              	.L35:
 588 0008 00000000 		.word	haptic
 589              	.LBE34:
 590              	.LBE33:
 591              		.cfi_endproc
 592              	.LFE3394:
 593              		.size	_GLOBAL__sub_I__ZN11hapticQueueC2Ev, .-_GLOBAL__sub_I__ZN11hapticQueueC2Ev
 594              		.section	.init_array,"aw",%init_array
 595              		.align	2
 596 0000 00000000 		.word	_GLOBAL__sub_I__ZN11hapticQueueC2Ev(target1)
 597              		.global	haptic
 598              		.section	.bss.haptic,"aw",%nobits
 599              		.type	haptic, %object
 600              		.size	haptic, 17
 601              	haptic:
 602 0000 00000000 		.space	17
 602      00000000 
 602      00000000 
 602      00000000 
 602      00
 603              		.text
 604              	.Letext0:
 605              		.file 3 "/opt/arm-gnu-toolchain-14.2.rel1-x86_64-arm-none-eabi/arm-none-eabi/include/c++/14.2.1/cs
 606              		.file 4 "/opt/arm-gnu-toolchain-14.2.rel1-x86_64-arm-none-eabi/arm-none-eabi/include/c++/14.2.1/bi
 607              		.file 5 "/opt/arm-gnu-toolchain-14.2.rel1-x86_64-arm-none-eabi/arm-none-eabi/include/c++/14.2.1/cs
 608              		.file 6 "/opt/arm-gnu-toolchain-14.2.rel1-x86_64-arm-none-eabi/arm-none-eabi/include/c++/14.2.1/ci
 609              		.file 7 "/opt/arm-gnu-toolchain-14.2.rel1-x86_64-arm-none-eabi/arm-none-eabi/include/c++/14.2.1/cw
 610              		.file 8 "/opt/arm-gnu-toolchain-14.2.rel1-x86_64-arm-none-eabi/arm-none-eabi/include/c++/14.2.1/ty
 611              		.file 9 "/opt/arm-gnu-toolchain-14.2.rel1-x86_64-arm-none-eabi/arm-none-eabi/include/c++/14.2.1/cl
 612              		.file 10 "/opt/arm-gnu-toolchain-14.2.rel1-x86_64-arm-none-eabi/arm-none-eabi/include/c++/14.2.1/d
 613              		.file 11 "/opt/arm-gnu-toolchain-14.2.rel1-x86_64-arm-none-eabi/arm-none-eabi/include/c++/14.2.1/a
ARM GAS  /tmp/cc0hf4xn.s 			page 16


 614              		.file 12 "/opt/arm-gnu-toolchain-14.2.rel1-x86_64-arm-none-eabi/arm-none-eabi/include/c++/14.2.1/s
 615              		.file 13 "/opt/arm-gnu-toolchain-14.2.rel1-x86_64-arm-none-eabi/arm-none-eabi/include/c++/14.2.1/b
 616              		.file 14 "/opt/arm-gnu-toolchain-14.2.rel1-x86_64-arm-none-eabi/arm-none-eabi/include/c++/14.2.1/c
 617              		.file 15 "/opt/arm-gnu-toolchain-14.2.rel1-x86_64-arm-none-eabi/arm-none-eabi/include/c++/14.2.1/c
 618              		.file 16 "/opt/arm-gnu-toolchain-14.2.rel1-x86_64-arm-none-eabi/arm-none-eabi/include/c++/14.2.1/c
 619              		.file 17 "/opt/arm-gnu-toolchain-14.2.rel1-x86_64-arm-none-eabi/arm-none-eabi/include/c++/14.2.1/b
 620              		.file 18 "/opt/arm-gnu-toolchain-14.2.rel1-x86_64-arm-none-eabi/arm-none-eabi/include/c++/14.2.1/f
 621              		.file 19 "/opt/arm-gnu-toolchain-14.2.rel1-x86_64-arm-none-eabi/arm-none-eabi/include/c++/14.2.1/b
 622              		.file 20 "/opt/arm-gnu-toolchain-14.2.rel1-x86_64-arm-none-eabi/lib/gcc/arm-none-eabi/14.2.1/inclu
 623              		.file 21 "/opt/arm-gnu-toolchain-14.2.rel1-x86_64-arm-none-eabi/arm-none-eabi/include/machine/_def
 624              		.file 22 "/opt/arm-gnu-toolchain-14.2.rel1-x86_64-arm-none-eabi/arm-none-eabi/include/sys/_types.h
 625              		.file 23 "/opt/arm-gnu-toolchain-14.2.rel1-x86_64-arm-none-eabi/arm-none-eabi/include/sys/reent.h"
 626              		.file 24 "/opt/arm-gnu-toolchain-14.2.rel1-x86_64-arm-none-eabi/arm-none-eabi/include/sys/lock.h"
 627              		.file 25 "/opt/arm-gnu-toolchain-14.2.rel1-x86_64-arm-none-eabi/arm-none-eabi/include/stdlib.h"
 628              		.file 26 "/opt/arm-gnu-toolchain-14.2.rel1-x86_64-arm-none-eabi/arm-none-eabi/include/c++/14.2.1/s
 629              		.file 27 "/opt/arm-gnu-toolchain-14.2.rel1-x86_64-arm-none-eabi/arm-none-eabi/include/sys/_stdint.
 630              		.file 28 "/opt/arm-gnu-toolchain-14.2.rel1-x86_64-arm-none-eabi/arm-none-eabi/include/stdint.h"
 631              		.file 29 "/opt/arm-gnu-toolchain-14.2.rel1-x86_64-arm-none-eabi/arm-none-eabi/include/inttypes.h"
 632              		.file 30 "/workspaces/edgetx/radio/src/edgetx_types.h"
 633              		.file 31 "/opt/arm-gnu-toolchain-14.2.rel1-x86_64-arm-none-eabi/lib/gcc/arm-none-eabi/14.2.1/inclu
 634              		.file 32 "/opt/arm-gnu-toolchain-14.2.rel1-x86_64-arm-none-eabi/arm-none-eabi/include/wchar.h"
 635              		.file 33 "/opt/arm-gnu-toolchain-14.2.rel1-x86_64-arm-none-eabi/arm-none-eabi/include/locale.h"
 636              		.file 34 "/opt/arm-gnu-toolchain-14.2.rel1-x86_64-arm-none-eabi/arm-none-eabi/include/stdio.h"
 637              		.file 35 "/opt/arm-gnu-toolchain-14.2.rel1-x86_64-arm-none-eabi/arm-none-eabi/include/string.h"
 638              		.file 36 "/workspaces/edgetx/radio/src/lib_file.h"
 639              		.file 37 "/workspaces/edgetx/radio/src/dataconstants.h"
 640              		.file 38 "/workspaces/edgetx/radio/src/datastructs_private.h"
 641              		.file 39 "/workspaces/edgetx/radio/src/myeeprom.h"
 642              		.file 40 "/workspaces/edgetx/radio/src/audio.h"
 643              		.file 41 "/workspaces/edgetx/radio/src/translations.h"
 644              		.file 42 "/workspaces/edgetx/radio/src/telemetry/crossfire.h"
 645              		.file 43 "/workspaces/edgetx/radio/src/pulses/modules_helpers.h"
 646              		.file 44 "/workspaces/edgetx/radio/src/keys.h"
 647              		.file 45 "/workspaces/edgetx/radio/src/telemetry/frsky.h"
 648              		.file 46 "/workspaces/edgetx/radio/src/telemetry/telemetry.h"
 649              		.file 47 "/workspaces/edgetx/radio/src/telemetry/telemetry_sensors.h"
 650              		.file 48 "/workspaces/edgetx/radio/src/gvars.h"
 651              		.file 49 "/workspaces/edgetx/radio/src/edgetx.h"
 652              		.file 50 "/workspaces/edgetx/radio/src/sdcard.h"
 653              		.file 51 "/workspaces/edgetx/radio/src/telemetry/ghost_menu.h"
 654              		.file 52 "/workspaces/edgetx/radio/src/lua/lua_api.h"
 655              		.file 53 "/workspaces/edgetx/radio/src/targets/taranis/board.h"
 656              		.file 54 "/opt/arm-gnu-toolchain-14.2.rel1-x86_64-arm-none-eabi/arm-none-eabi/include/c++/14.2.1/b
 657              		.file 55 "<built-in>"